; Function Attrs: mustprogress uwtable
define internal noundef ptr @"_ZZN4pkpy13add_module_osEPNS_2VMEEN3$_18__invokeES1_NS_8ArgsViewE"(ptr noundef %0, ptr readonly captures(none) %1, ptr readnone captures(none) %2) #3 align 2 personality ptr @__gxx_personality_v0 {
  %4 = alloca %"class.std::filesystem::__cxx11::path", align 8
  %5 = alloca %"class.std::basic_string_view", align 8
  call void @llvm.lifetime.start.p0(i64 40, ptr nonnull %4)
  call void @llvm.lifetime.start.p0(i64 16, ptr nonnull %5)
  %6 = load ptr, ptr %1, align 8
  %7 = ptrtoint ptr %6 to i64
  %8 = and i64 %7, 3
  %9 = icmp eq i64 %8, 2
  br i1 %9, label %13, label %_ZN4pkpy7is_typeEPNS_8PyObjectENS_4TypeE.exit.i.i.i.i

_ZN4pkpy7is_typeEPNS_8PyObjectENS_4TypeE.exit.i.i.i.i: ; preds = %3
  %10 = getelementptr inbounds nuw i8, ptr %6, i64 10
  %11 = load i16, ptr %10, align 2
  %12 = icmp eq i16 %11, 5
  br i1 %12, label %_ZN4pkpy7py_castIRNS_3StrEEET_PNS_2VMEPNS_8PyObjectE.exit.i, label %13

13:                                               ; preds = %_ZN4pkpy7is_typeEPNS_8PyObjectENS_4TypeE.exit.i.i.i.i, %3
  %14 = getelementptr inbounds nuw i8, ptr %6, i64 10
  %15 = select i1 %9, ptr @_ZN4pkpy2VM6tp_intE, ptr %14
  %.sroa.0.0.copyload.i.i.i.i.i = load i16, ptr %15, align 2
  tail call void @_ZN4pkpy2VM9TypeErrorENS_4TypeES1_(ptr noundef nonnull align 8 dereferenceable(264913) %0, i16 5, i16 %.sroa.0.0.copyload.i.i.i.i.i)
  br label %_ZN4pkpy7py_castIRNS_3StrEEET_PNS_2VMEPNS_8PyObjectE.exit.i

_ZN4pkpy7py_castIRNS_3StrEEET_PNS_2VMEPNS_8PyObjectE.exit.i: ; preds = %13, %_ZN4pkpy7is_typeEPNS_8PyObjectENS_4TypeE.exit.i.i.i.i
  %16 = getelementptr inbounds nuw i8, ptr %6, i64 24
  %17 = getelementptr inbounds nuw i8, ptr %6, i64 32
  %18 = load ptr, ptr %17, align 8
  %19 = load i32, ptr %16, align 8
  %20 = sext i32 %19 to i64
  store i64 %20, ptr %5, align 8
  %21 = getelementptr inbounds nuw i8, ptr %5, i64 8
  store ptr %18, ptr %21, align 8
  call void @_ZNSt10filesystem7__cxx114pathC2ISt17basic_string_viewIcSt11char_traitsIcEES1_EERKT_NS1_6formatE(ptr noundef nonnull align 8 dereferenceable(40) %4, ptr noundef nonnull align 8 dereferenceable(16) %5, i8 noundef zeroext 2)
  invoke void @_ZNSt10filesystem12current_pathERKNS_7__cxx114pathE(ptr noundef nonnull align 8 dereferenceable(40) %4)
          to label %22 unwind label %28

22:                                               ; preds = %_ZN4pkpy7py_castIRNS_3StrEEET_PNS_2VMEPNS_8PyObjectE.exit.i
  %23 = getelementptr inbounds nuw i8, ptr %0, i64 264520
  %24 = load ptr, ptr %23, align 8
  %25 = getelementptr inbounds nuw i8, ptr %4, i64 32
  %26 = load ptr, ptr %25, align 8
  %.not.i.i.i.i = icmp eq ptr %26, null
  br i1 %.not.i.i.i.i, label %"_ZZN4pkpy13add_module_osEPNS_2VMEENK3$_1clES1_NS_8ArgsViewE.exit", label %27

27:                                               ; preds = %22
  call void @_ZNKSt10filesystem7__cxx114path5_List13_Impl_deleterclEPNS2_5_ImplE(ptr noundef nonnull align 8 dereferenceable(8) %25, ptr noundef nonnull %26) #26
  br label %"_ZZN4pkpy13add_module_osEPNS_2VMEENK3$_1clES1_NS_8ArgsViewE.exit"

28:                                               ; preds = %_ZN4pkpy7py_castIRNS_3StrEEET_PNS_2VMEPNS_8PyObjectE.exit.i
  %29 = landingpad { ptr, i32 }
          cleanup
  call void @_ZNSt10filesystem7__cxx114pathD2Ev(ptr noundef nonnull align 8 dereferenceable(40) %4) #26
  resume { ptr, i32 } %29

"_ZZN4pkpy13add_module_osEPNS_2VMEENK3$_1clES1_NS_8ArgsViewE.exit": ; preds = %22, %27
  store ptr null, ptr %25, align 8
  call void @_ZNSt7__cxx1112basic_stringIcSt11char_traitsIcESaIcEED1Ev(ptr noundef nonnull align 8 dereferenceable(40) %4) #26
  call void @llvm.lifetime.end.p0(i64 40, ptr nonnull %4)
  call void @llvm.lifetime.end.p0(i64 16, ptr nonnull %5)
  ret ptr %24
}